; Function Attrs: nounwind uwtable
define internal ptr @heapctype_vectorcall_new(ptr noundef %0, ptr noundef readonly captures(none) %1, ptr noundef readnone %2) #0 {
  %4 = getelementptr i8, ptr %1, i64 8
  %.val.i = load ptr, ptr %4, align 8, !tbaa !9
  %5 = getelementptr i8, ptr %.val.i, i64 168
  %.val3.i = load i64, ptr %5, align 8, !tbaa !12
  %6 = and i64 %.val3.i, 67108864
  %.not.i = icmp eq i64 %6, 0
  br i1 %.not.i, label %7, label %8

7:                                                ; preds = %3
  tail call void @__assert_fail(ptr noundef nonnull @.str.77, ptr noundef nonnull @.str.78, i32 noundef 22, ptr noundef nonnull @__PRETTY_FUNCTION__.PyTuple_GET_SIZE) #10
  unreachable

8:                                                ; preds = %3
  %.not.i.i = icmp eq ptr %.val.i, @PyLong_Type
  br i1 %.not.i.i, label %9, label %10

9:                                                ; preds = %8
  tail call void @__assert_fail(ptr noundef nonnull @.str.81, ptr noundef nonnull @.str.82, i32 noundef 282, ptr noundef nonnull @__PRETTY_FUNCTION__.Py_SIZE) #10
  unreachable

10:                                               ; preds = %8
  %.not3.i.i = icmp eq ptr %.val.i, @PyBool_Type
  br i1 %.not3.i.i, label %11, label %PyTuple_GET_SIZE.exit

11:                                               ; preds = %10
  tail call void @__assert_fail(ptr noundef nonnull @.str.83, ptr noundef nonnull @.str.82, i32 noundef 283, ptr noundef nonnull @__PRETTY_FUNCTION__.Py_SIZE) #10
  unreachable

PyTuple_GET_SIZE.exit:                            ; preds = %10
  %12 = getelementptr inbounds nuw i8, ptr %1, i64 16
  %13 = load i64, ptr %12, align 8, !tbaa !49
  %14 = icmp ne i64 %13, 0
  %15 = icmp ne ptr %2, null
  %or.cond = or i1 %15, %14
  br i1 %or.cond, label %16, label %19

16:                                               ; preds = %PyTuple_GET_SIZE.exit
  %17 = load ptr, ptr @PyExc_IndexError, align 8, !tbaa !23
  %18 = tail call ptr (ptr, ptr, ...) @PyErr_Format(ptr noundef %17, ptr noundef nonnull @.str.142) #8
  br label %21

19:                                               ; preds = %PyTuple_GET_SIZE.exit
  %20 = tail call ptr @_PyObject_New(ptr noundef %0) #8
  br label %21

21:                                               ; preds = %19, %16
  %.0 = phi ptr [ %18, %16 ], [ %20, %19 ]
  ret ptr %.0
}